; Function Attrs: inlinehint mustprogress nounwind uwtable
define internal fastcc void @_ZN12_GLOBAL__N_19VizConfigD2Ev(ptr noundef nonnull readonly align 8 captures(none) dereferenceable(40) %0) unnamed_addr #4 align 2 personality ptr @__gxx_personality_v0 {
  %2 = getelementptr inbounds nuw i8, ptr %0, i64 16
  %3 = load ptr, ptr %2, align 8, !tbaa !73
  %4 = getelementptr inbounds nuw i8, ptr %0, i64 24
  %5 = load ptr, ptr %4, align 8, !tbaa !59
  %.not4.i.i.i.i = icmp eq ptr %3, %5
  br i1 %.not4.i.i.i.i, label %_ZSt8_DestroyIPSt4pairIN12_GLOBAL__N_19VizConfig12group_type_tEN5Yosys5RTLIL9SelectionEES7_EvT_S9_RSaIT0_E.exit.i, label %.lr.ph.i.i.i.i

.lr.ph.i.i.i.i:                                   ; preds = %1, %.lr.ph.i.i.i.i
  %.05.i.i.i.i = phi ptr [ %7, %.lr.ph.i.i.i.i ], [ %3, %1 ]
  %6 = getelementptr inbounds nuw i8, ptr %.05.i.i.i.i, i64 8
  tail call void @_ZN5Yosys5RTLIL9SelectionD2Ev(ptr noundef nonnull align 8 dereferenceable(120) %6) #32
  %7 = getelementptr inbounds nuw i8, ptr %.05.i.i.i.i, i64 128
  %.not.i.i.i.i = icmp eq ptr %7, %5
  br i1 %.not.i.i.i.i, label %_ZSt8_DestroyIPSt4pairIN12_GLOBAL__N_19VizConfig12group_type_tEN5Yosys5RTLIL9SelectionEES7_EvT_S9_RSaIT0_E.exitthread-pre-split.i, label %.lr.ph.i.i.i.i, !llvm.loop !75

_ZSt8_DestroyIPSt4pairIN12_GLOBAL__N_19VizConfig12group_type_tEN5Yosys5RTLIL9SelectionEES7_EvT_S9_RSaIT0_E.exitthread-pre-split.i: ; preds = %.lr.ph.i.i.i.i
  %.val.pr.i = load ptr, ptr %2, align 8, !tbaa !73
  br label %_ZSt8_DestroyIPSt4pairIN12_GLOBAL__N_19VizConfig12group_type_tEN5Yosys5RTLIL9SelectionEES7_EvT_S9_RSaIT0_E.exit.i

_ZSt8_DestroyIPSt4pairIN12_GLOBAL__N_19VizConfig12group_type_tEN5Yosys5RTLIL9SelectionEES7_EvT_S9_RSaIT0_E.exit.i: ; preds = %_ZSt8_DestroyIPSt4pairIN12_GLOBAL__N_19VizConfig12group_type_tEN5Yosys5RTLIL9SelectionEES7_EvT_S9_RSaIT0_E.exitthread-pre-split.i, %1
  %.val.i = phi ptr [ %.val.pr.i, %_ZSt8_DestroyIPSt4pairIN12_GLOBAL__N_19VizConfig12group_type_tEN5Yosys5RTLIL9SelectionEES7_EvT_S9_RSaIT0_E.exitthread-pre-split.i ], [ %3, %1 ]
  %.not.i.i.i = icmp eq ptr %.val.i, null
  br i1 %.not.i.i.i, label %_ZNSt6vectorISt4pairIN12_GLOBAL__N_19VizConfig12group_type_tEN5Yosys5RTLIL9SelectionEESaIS7_EED2Ev.exit, label %8

8:                                                ; preds = %_ZSt8_DestroyIPSt4pairIN12_GLOBAL__N_19VizConfig12group_type_tEN5Yosys5RTLIL9SelectionEES7_EvT_S9_RSaIT0_E.exit.i
  %9 = getelementptr inbounds nuw i8, ptr %0, i64 32
  %.val1.i = load ptr, ptr %9, align 8, !tbaa !60
  %10 = ptrtoint ptr %.val1.i to i64
  %11 = ptrtoint ptr %.val.i to i64
  %12 = sub i64 %10, %11
  tail call void @_ZdlPvm(ptr noundef nonnull %.val.i, i64 noundef %12) #33
  br label %_ZNSt6vectorISt4pairIN12_GLOBAL__N_19VizConfig12group_type_tEN5Yosys5RTLIL9SelectionEESaIS7_EED2Ev.exit

_ZNSt6vectorISt4pairIN12_GLOBAL__N_19VizConfig12group_type_tEN5Yosys5RTLIL9SelectionEESaIS7_EED2Ev.exit: ; preds = %_ZSt8_DestroyIPSt4pairIN12_GLOBAL__N_19VizConfig12group_type_tEN5Yosys5RTLIL9SelectionEES7_EvT_S9_RSaIT0_E.exit.i, %8
  ret void
}